(dp0
S'libssh.py'
p1
c__builtin__
set
p2
((lp3
(I20
I6
S'statement'
p4
tp5
a(I18
I6
g4
tp6
a(I32
I18
g4
tp7
a(I2
I2
g4
tp8
a(I40
I6
g4
tp9
a(I4
I2
g4
tp10
a(I23
S'keyword'
p11
tp12
a(I31
g11
tp13
a(I13
I6
g4
tp14
a(I15
I6
g4
tp15
a(I1
I2
g4
tp16
a(I38
I6
g4
tp17
a(I3
I2
g4
tp18
a(I6
I2
g4
tp19
a(I26
I10
g4
tp20
a(I35
I18
g4
tp21
a(I7
I2
g4
tp22
a(I11
g11
tp23
a(I33
I18
g4
tp24
a(I42
I2
g4
tp25
a(I17
I6
g4
tp26
a(I27
I10
g4
tp27
a(I5
I2
g4
tp28
a(I25
I10
g4
tp29
a(I43
I2
g4
tp30
a(I30
g11
tp31
atp32
Rp33
sS'trace.py'
p34
g2
((lp35
(I80
I10
g4
tp36
atp37
Rp38
s.